target datalayout = "e-m:e-p270:32:32-p271:32:32-p272:64:64-i64:64-i128:128-f80:128-n8:16:32:64-S128"
target triple = "x86_64-pc-linux-gnu"

%struct.OSQPVectorf_ = type { ptr, i64 }

; Function Attrs: nounwind uwtable
define void @OSQPVectorf_project_polar_reccone(ptr noundef %0, ptr noundef %1, ptr noundef %2, double noundef %3) #0 {
  %5 = alloca ptr, align 8
  %6 = alloca ptr, align 8
  %7 = alloca ptr, align 8
  %8 = alloca double, align 8
  %9 = alloca i64, align 8
  %10 = alloca i64, align 8
  %11 = alloca ptr, align 8
  %12 = alloca ptr, align 8
  %13 = alloca ptr, align 8
  store ptr %0, ptr %5, align 8
  store ptr %1, ptr %6, align 8
  store ptr %2, ptr %7, align 8
  store double %3, ptr %8, align 8
  %14 = load ptr, ptr %5, align 8
  %15 = getelementptr inbounds %struct.OSQPVectorf_, ptr %14, i32 0, i32 1
  %16 = load i64, ptr %15, align 8
  store i64 %16, ptr %10, align 8
  %17 = load ptr, ptr %5, align 8
  %18 = getelementptr inbounds %struct.OSQPVectorf_, ptr %17, i32 0, i32 0
  %19 = load ptr, ptr %18, align 8
  store ptr %19, ptr %11, align 8
  %20 = load ptr, ptr %6, align 8
  %21 = getelementptr inbounds %struct.OSQPVectorf_, ptr %20, i32 0, i32 0
  %22 = load ptr, ptr %21, align 8
  store ptr %22, ptr %12, align 8
  %23 = load ptr, ptr %7, align 8
  %24 = getelementptr inbounds %struct.OSQPVectorf_, ptr %23, i32 0, i32 0
  %25 = load ptr, ptr %24, align 8
  store ptr %25, ptr %13, align 8
  store i64 0, ptr %9, align 8
  br label %26

26:                                               ; preds = %94, %4
  %27 = load i64, ptr %9, align 8
  %28 = load i64, ptr %10, align 8
  %29 = icmp slt i64 %27, %28
  br i1 %29, label %30, label %97

30:                                               ; preds = %26
  %31 = load ptr, ptr %13, align 8
  %32 = load i64, ptr %9, align 8
  %33 = getelementptr inbounds double, ptr %31, i64 %32
  %34 = load double, ptr %33, align 8
  %35 = load double, ptr %8, align 8
  %36 = fcmp ogt double %34, %35
  br i1 %36, label %37, label %67

37:                                               ; preds = %30
  %38 = load ptr, ptr %12, align 8
  %39 = load i64, ptr %9, align 8
  %40 = getelementptr inbounds double, ptr %38, i64 %39
  %41 = load double, ptr %40, align 8
  %42 = load double, ptr %8, align 8
  %43 = fneg double %42
  %44 = fcmp olt double %41, %43
  br i1 %44, label %45, label %49

45:                                               ; preds = %37
  %46 = load ptr, ptr %11, align 8
  %47 = load i64, ptr %9, align 8
  %48 = getelementptr inbounds double, ptr %46, i64 %47
  store double 0.000000e+00, ptr %48, align 8
  br label %66

49:                                               ; preds = %37
  %50 = load ptr, ptr %11, align 8
  %51 = load i64, ptr %9, align 8
  %52 = getelementptr inbounds double, ptr %50, i64 %51
  %53 = load double, ptr %52, align 8
  %54 = fcmp olt double %53, 0.000000e+00
  br i1 %54, label %55, label %60

55:                                               ; preds = %49
  %56 = load ptr, ptr %11, align 8
  %57 = load i64, ptr %9, align 8
  %58 = getelementptr inbounds double, ptr %56, i64 %57
  %59 = load double, ptr %58, align 8
  br label %61

60:                                               ; preds = %49
  br label %61

61:                                               ; preds = %60, %55
  %62 = phi double [ %59, %55 ], [ 0.000000e+00, %60 ]
  %63 = load ptr, ptr %11, align 8
  %64 = load i64, ptr %9, align 8
  %65 = getelementptr inbounds double, ptr %63, i64 %64
  store double %62, ptr %65, align 8
  br label %66

66:                                               ; preds = %61, %45
  br label %93

67:                                               ; preds = %30
  %68 = load ptr, ptr %12, align 8
  %69 = load i64, ptr %9, align 8
  %70 = getelementptr inbounds double, ptr %68, i64 %69
  %71 = load double, ptr %70, align 8
  %72 = load double, ptr %8, align 8
  %73 = fneg double %72
  %74 = fcmp olt double %71, %73
  br i1 %74, label %75, label %92

75:                                               ; preds = %67
  %76 = load ptr, ptr %11, align 8
  %77 = load i64, ptr %9, align 8
  %78 = getelementptr inbounds double, ptr %76, i64 %77
  %79 = load double, ptr %78, align 8
  %80 = fcmp ogt double %79, 0.000000e+00
  br i1 %80, label %81, label %86

81:                                               ; preds = %75
  %82 = load ptr, ptr %11, align 8
  %83 = load i64, ptr %9, align 8
  %84 = getelementptr inbounds double, ptr %82, i64 %83
  %85 = load double, ptr %84, align 8
  br label %87

86:                                               ; preds = %75
  br label %87

87:                                               ; preds = %86, %81
  %88 = phi double [ %85, %81 ], [ 0.000000e+00, %86 ]
  %89 = load ptr, ptr %11, align 8
  %90 = load i64, ptr %9, align 8
  %91 = getelementptr inbounds double, ptr %89, i64 %90
  store double %88, ptr %91, align 8
  br label %92

92:                                               ; preds = %87, %67
  br label %93

93:                                               ; preds = %92, %66
  br label %94

94:                                               ; preds = %93
  %95 = load i64, ptr %9, align 8
  %96 = add nsw i64 %95, 1
  store i64 %96, ptr %9, align 8
  br label %26, !llvm.loop !38

97:                                               ; preds = %26
  ret void
}