; Function Attrs: nofree norecurse nosync nounwind memory(readwrite, inaccessiblemem: none) uwtable
define void @OSQPVectorf_project_polar_reccone(ptr nocapture noundef readonly %0, ptr nocapture noundef readonly %1, ptr nocapture noundef readonly %2, double noundef %3) local_unnamed_addr #7 {
  %5 = getelementptr inbounds i8, ptr %0, i64 8
  %6 = load i64, ptr %5, align 8
  %7 = load ptr, ptr %0, align 8
  %8 = load ptr, ptr %1, align 8
  %9 = load ptr, ptr %2, align 8
  %10 = icmp sgt i64 %6, 0
  br i1 %10, label %.lr.ph, label %._crit_edge

.lr.ph:                                           ; preds = %4
  %11 = fneg double %3
  br label %12

12:                                               ; preds = %.lr.ph, %32
  %.032 = phi i64 [ 0, %.lr.ph ], [ %33, %32 ]
  %13 = getelementptr inbounds double, ptr %9, i64 %.032
  %14 = load double, ptr %13, align 8
  %15 = fcmp ogt double %14, %3
  %16 = getelementptr inbounds double, ptr %8, i64 %.032
  %17 = load double, ptr %16, align 8
  %18 = fcmp olt double %17, %11
  br i1 %15, label %19, label %26

19:                                               ; preds = %12
  %20 = getelementptr inbounds double, ptr %7, i64 %.032
  br i1 %18, label %21, label %22

21:                                               ; preds = %19
  store double 0.000000e+00, ptr %20, align 8
  br label %32

22:                                               ; preds = %19
  %23 = load double, ptr %20, align 8
  %24 = fcmp olt double %23, 0.000000e+00
  %25 = select i1 %24, double %23, double 0.000000e+00
  store double %25, ptr %20, align 8
  br label %32

26:                                               ; preds = %12
  br i1 %18, label %27, label %32

27:                                               ; preds = %26
  %28 = getelementptr inbounds double, ptr %7, i64 %.032
  %29 = load double, ptr %28, align 8
  %30 = fcmp ogt double %29, 0.000000e+00
  %31 = select i1 %30, double %29, double 0.000000e+00
  store double %31, ptr %28, align 8
  br label %32

32:                                               ; preds = %22, %21, %27, %26
  %33 = add nuw nsw i64 %.032, 1
  %exitcond.not = icmp eq i64 %33, %6
  br i1 %exitcond.not, label %._crit_edge, label %12, !llvm.loop !38

._crit_edge:                                      ; preds = %32, %4
  ret void
}